; Function Attrs: nounwind uwtable
define internal i32 @dissect_wifi_dpp_tcp_pdus(ptr noundef %0, ptr noundef %1, ptr noundef %2, ptr noundef %3) #0 {
  %5 = tail call i32 @tvb_bytes_exist(ptr noundef %0, i32 noundef 0, i32 noundef 4) #2
  %.not = icmp eq i32 %5, 0
  br i1 %.not, label %8, label %6

6:                                                ; preds = %4
  tail call void @tcp_dissect_pdus(ptr noundef %0, ptr noundef %1, ptr noundef %2, i32 noundef 1, i32 noundef 4, ptr noundef nonnull @get_wifi_dpp_tcp_len, ptr noundef nonnull @dissect_wifi_dpp_tcp_pdu, ptr noundef %3) #2
  %7 = tail call i32 @tvb_reported_length(ptr noundef %0) #2
  br label %8

8:                                                ; preds = %4, %6
  %.0 = phi i32 [ %7, %6 ], [ 0, %4 ]
  ret i32 %.0
}